target datalayout = "e-m:e-p270:32:32-p271:32:32-p272:64:64-i64:64-i128:128-f80:128-n8:16:32:64-S128"
target triple = "x86_64-pc-linux-gnu"

; Function Attrs: nounwind uwtable
define internal void @pred16x16_dc_8_c(ptr noundef %0, i64 noundef %1) #1 {
  %3 = alloca ptr, align 8
  %4 = alloca i64, align 8
  %5 = alloca i32, align 4
  %6 = alloca i32, align 4
  %7 = alloca ptr, align 8
  %8 = alloca i32, align 4
  store ptr %0, ptr %3, align 8, !tbaa !12
  store i64 %1, ptr %4, align 8, !tbaa !14
  call void @llvm.lifetime.start.p0(i64 4, ptr %5) #9
  call void @llvm.lifetime.start.p0(i64 4, ptr %6) #9
  store i32 0, ptr %6, align 4, !tbaa !9
  call void @llvm.lifetime.start.p0(i64 8, ptr %7) #9
  %9 = load ptr, ptr %3, align 8, !tbaa !12
  store ptr %9, ptr %7, align 8, !tbaa !12
  call void @llvm.lifetime.start.p0(i64 4, ptr %8) #9
  %10 = load i64, ptr %4, align 8, !tbaa !14
  %11 = ashr i64 %10, 0
  store i64 %11, ptr %4, align 8, !tbaa !14
  store i32 0, ptr %5, align 4, !tbaa !9
  br label %12

12:                                               ; preds = %27, %2
  %13 = load i32, ptr %5, align 4, !tbaa !9
  %14 = icmp slt i32 %13, 16
  br i1 %14, label %15, label %30

15:                                               ; preds = %12
  %16 = load ptr, ptr %7, align 8, !tbaa !12
  %17 = load i32, ptr %5, align 4, !tbaa !9
  %18 = sext i32 %17 to i64
  %19 = load i64, ptr %4, align 8, !tbaa !14
  %20 = mul nsw i64 %18, %19
  %21 = add nsw i64 -1, %20
  %22 = getelementptr inbounds i8, ptr %16, i64 %21
  %23 = load i8, ptr %22, align 1, !tbaa !18
  %24 = zext i8 %23 to i32
  %25 = load i32, ptr %6, align 4, !tbaa !9
  %26 = add nsw i32 %25, %24
  store i32 %26, ptr %6, align 4, !tbaa !9
  br label %27

27:                                               ; preds = %15
  %28 = load i32, ptr %5, align 4, !tbaa !9
  %29 = add nsw i32 %28, 1
  store i32 %29, ptr %5, align 4, !tbaa !9
  br label %12, !llvm.loop !282

30:                                               ; preds = %12
  store i32 0, ptr %5, align 4, !tbaa !9
  br label %31

31:                                               ; preds = %45, %30
  %32 = load i32, ptr %5, align 4, !tbaa !9
  %33 = icmp slt i32 %32, 16
  br i1 %33, label %34, label %48

34:                                               ; preds = %31
  %35 = load ptr, ptr %7, align 8, !tbaa !12
  %36 = load i32, ptr %5, align 4, !tbaa !9
  %37 = sext i32 %36 to i64
  %38 = load i64, ptr %4, align 8, !tbaa !14
  %39 = sub nsw i64 %37, %38
  %40 = getelementptr inbounds i8, ptr %35, i64 %39
  %41 = load i8, ptr %40, align 1, !tbaa !18
  %42 = zext i8 %41 to i32
  %43 = load i32, ptr %6, align 4, !tbaa !9
  %44 = add nsw i32 %43, %42
  store i32 %44, ptr %6, align 4, !tbaa !9
  br label %45

45:                                               ; preds = %34
  %46 = load i32, ptr %5, align 4, !tbaa !9
  %47 = add nsw i32 %46, 1
  store i32 %47, ptr %5, align 4, !tbaa !9
  br label %31, !llvm.loop !283

48:                                               ; preds = %31
  %49 = load i32, ptr %6, align 4, !tbaa !9
  %50 = add nsw i32 %49, 16
  %51 = ashr i32 %50, 5
  %52 = mul i32 %51, 16843009
  store i32 %52, ptr %8, align 4, !tbaa !9
  store i32 0, ptr %5, align 4, !tbaa !9
  br label %53

53:                                               ; preds = %72, %48
  %54 = load i32, ptr %5, align 4, !tbaa !9
  %55 = icmp slt i32 %54, 16
  br i1 %55, label %56, label %75

56:                                               ; preds = %53
  %57 = load i32, ptr %8, align 4, !tbaa !9
  %58 = load ptr, ptr %7, align 8, !tbaa !12
  %59 = getelementptr inbounds i8, ptr %58, i64 0
  store i32 %57, ptr %59, align 4, !tbaa !18
  %60 = load i32, ptr %8, align 4, !tbaa !9
  %61 = load ptr, ptr %7, align 8, !tbaa !12
  %62 = getelementptr inbounds i8, ptr %61, i64 4
  store i32 %60, ptr %62, align 4, !tbaa !18
  %63 = load i32, ptr %8, align 4, !tbaa !9
  %64 = load ptr, ptr %7, align 8, !tbaa !12
  %65 = getelementptr inbounds i8, ptr %64, i64 8
  store i32 %63, ptr %65, align 4, !tbaa !18
  %66 = load i32, ptr %8, align 4, !tbaa !9
  %67 = load ptr, ptr %7, align 8, !tbaa !12
  %68 = getelementptr inbounds i8, ptr %67, i64 12
  store i32 %66, ptr %68, align 4, !tbaa !18
  %69 = load i64, ptr %4, align 8, !tbaa !14
  %70 = load ptr, ptr %7, align 8, !tbaa !12
  %71 = getelementptr inbounds i8, ptr %70, i64 %69
  store ptr %71, ptr %7, align 8, !tbaa !12
  br label %72

72:                                               ; preds = %56
  %73 = load i32, ptr %5, align 4, !tbaa !9
  %74 = add nsw i32 %73, 1
  store i32 %74, ptr %5, align 4, !tbaa !9
  br label %53, !llvm.loop !284

75:                                               ; preds = %53
  call void @llvm.lifetime.end.p0(i64 4, ptr %8) #9
  call void @llvm.lifetime.end.p0(i64 8, ptr %7) #9
  call void @llvm.lifetime.end.p0(i64 4, ptr %6) #9
  call void @llvm.lifetime.end.p0(i64 4, ptr %5) #9
  ret void
}