; Function Attrs: nofree norecurse nosync nounwind memory(argmem: readwrite) uwtable
define internal void @pred16x16_dc_8_c(ptr noundef captures(none) %0, i64 noundef %1) #3 {
  %invariant.gep = getelementptr i8, ptr %0, i64 -1
  br label %3

3:                                                ; preds = %2, %3
  %indvars.iv = phi i64 [ 0, %2 ], [ %indvars.iv.next, %3 ]
  %.02630 = phi i32 [ 0, %2 ], [ %7, %3 ]
  %4 = mul nsw i64 %1, %indvars.iv
  %gep = getelementptr i8, ptr %invariant.gep, i64 %4
  %5 = load i8, ptr %gep, align 1, !tbaa !8
  %6 = zext i8 %5 to i32
  %7 = add nuw nsw i32 %.02630, %6
  %indvars.iv.next = add nuw nsw i64 %indvars.iv, 1
  %exitcond.not = icmp eq i64 %indvars.iv.next, 16
  br i1 %exitcond.not, label %.preheader, label %3, !llvm.loop !284

.preheader:                                       ; preds = %3, %.preheader
  %indvars.iv37 = phi i64 [ %indvars.iv.next38, %.preheader ], [ 0, %3 ]
  %.132 = phi i32 [ %12, %.preheader ], [ %7, %3 ]
  %8 = sub nsw i64 %indvars.iv37, %1
  %9 = getelementptr inbounds i8, ptr %0, i64 %8
  %10 = load i8, ptr %9, align 1, !tbaa !8
  %11 = zext i8 %10 to i32
  %12 = add nuw nsw i32 %.132, %11
  %indvars.iv.next38 = add nuw nsw i64 %indvars.iv37, 1
  %exitcond40.not = icmp eq i64 %indvars.iv.next38, 16
  br i1 %exitcond40.not, label %13, label %.preheader, !llvm.loop !285

13:                                               ; preds = %.preheader
  %14 = add nuw nsw i32 %12, 16
  %15 = lshr i32 %14, 5
  %16 = mul i32 %15, 16843009
  br label %17

17:                                               ; preds = %13, %17
  %.034 = phi ptr [ %0, %13 ], [ %21, %17 ]
  %.233 = phi i32 [ 0, %13 ], [ %22, %17 ]
  store i32 %16, ptr %.034, align 4, !tbaa !8
  %18 = getelementptr inbounds nuw i8, ptr %.034, i64 4
  store i32 %16, ptr %18, align 4, !tbaa !8
  %19 = getelementptr inbounds nuw i8, ptr %.034, i64 8
  store i32 %16, ptr %19, align 4, !tbaa !8
  %20 = getelementptr inbounds nuw i8, ptr %.034, i64 12
  store i32 %16, ptr %20, align 4, !tbaa !8
  %21 = getelementptr inbounds i8, ptr %.034, i64 %1
  %22 = add nuw nsw i32 %.233, 1
  %exitcond41.not = icmp eq i32 %22, 16
  br i1 %exitcond41.not, label %23, label %17, !llvm.loop !286

23:                                               ; preds = %17
  ret void
}